; Function Attrs: mustprogress nofree norecurse nounwind willreturn memory(readwrite, inaccessiblemem: none) uwtable
define noundef i32 @_ZNK5arrow2io16MemoryMappedFile15file_descriptorEv(ptr nocapture noundef nonnull readonly align 8 dereferenceable(56) %this) local_unnamed_addr #8 align 2 personality ptr @__gxx_personality_v0 {
entry:
  %memory_map_ = getelementptr inbounds i8, ptr %this, i64 40
  %0 = load ptr, ptr %memory_map_, align 8
  %file_.i = getelementptr inbounds i8, ptr %0, i64 16
  %1 = load ptr, ptr %file_.i, align 8
  %fd_.i.i = getelementptr inbounds i8, ptr %1, i64 48
  %2 = load atomic i32, ptr %fd_.i.i seq_cst, align 4
  ret i32 %2
}